target datalayout = "e-m:e-p270:32:32-p271:32:32-p272:64:64-i64:64-i128:128-f80:128-n8:16:32:64-S128"
target triple = "x86_64-pc-linux-gnu"

%struct.RString = type { %struct.RBasic, i64, %union.anon }
%struct.RBasic = type { i64, i64 }
%union.anon = type { %struct.anon }
%struct.anon = type { ptr, %union.anon.0 }
%union.anon.0 = type { i64 }
%struct.anon.1 = type { [1 x i8] }

; Function Attrs: inlinehint nounwind sspstrong willreturn memory(read) uwtable
define internal i64 @RB_FL_TEST_RAW(i64 noundef %0, i64 noundef %1) #1 {
  %3 = alloca i64, align 8
  %4 = alloca i64, align 8
  store i64 %0, ptr %3, align 8, !tbaa !7
  store i64 %1, ptr %4, align 8, !tbaa !7
  %5 = load i64, ptr %3, align 8, !tbaa !7
  %6 = inttoptr i64 %5 to ptr
  %7 = getelementptr inbounds nuw %struct.RBasic, ptr %6, i32 0, i32 0
  %8 = load i64, ptr %7, align 8, !tbaa !23
  %9 = load i64, ptr %4, align 8, !tbaa !7
  %10 = and i64 %8, %9
  ret i64 %10
}

; Function Attrs: inlinehint nounwind sspstrong uwtable
define internal i32 @RB_ENCODING_GET_INLINED(i64 noundef %0) #3 {
  %2 = alloca i64, align 8
  %3 = alloca i64, align 8
  store i64 %0, ptr %2, align 8, !tbaa !7
  call void @llvm.lifetime.start.p0(i64 8, ptr %3) #29
  %4 = load i64, ptr %2, align 8, !tbaa !7
  %5 = call i64 @RB_FL_TEST_RAW(i64 noundef %4, i64 noundef 532676608) #28
  %6 = lshr i64 %5, 22
  store i64 %6, ptr %3, align 8, !tbaa !7
  %7 = load i64, ptr %3, align 8, !tbaa !7
  %8 = trunc i64 %7 to i32
  call void @llvm.lifetime.end.p0(i64 8, ptr %3) #29
  ret i32 %8
}

; Function Attrs: inlinehint nounwind sspstrong willreturn memory(read) uwtable
define internal i64 @RSTRING_LEN(i64 noundef %0) #1 {
  %2 = alloca i64, align 8
  store i64 %0, ptr %2, align 8, !tbaa !7
  %3 = load i64, ptr %2, align 8, !tbaa !7
  %4 = inttoptr i64 %3 to ptr
  %5 = getelementptr inbounds nuw %struct.RString, ptr %4, i32 0, i32 1
  %6 = load i64, ptr %5, align 8, !tbaa !11
  ret i64 %6
}

; Function Attrs: inlinehint nounwind sspstrong willreturn memory(read) uwtable
define internal zeroext i1 @RB_FL_ANY_RAW(i64 noundef %0, i64 noundef %1) #1 {
  %3 = alloca i64, align 8
  %4 = alloca i64, align 8
  store i64 %0, ptr %3, align 8, !tbaa !7
  store i64 %1, ptr %4, align 8, !tbaa !7
  %5 = load i64, ptr %3, align 8, !tbaa !7
  %6 = load i64, ptr %4, align 8, !tbaa !7
  %7 = call i64 @RB_FL_TEST_RAW(i64 noundef %5, i64 noundef %6) #28
  %8 = icmp ne i64 %7, 0
  ret i1 %8
}

; Function Attrs: inlinehint nounwind sspstrong uwtable
define internal i32 @RB_ENCODING_GET(i64 noundef %0) #3 {
  %2 = alloca i32, align 4
  %3 = alloca i64, align 8
  %4 = alloca i32, align 4
  %5 = alloca i32, align 4
  store i64 %0, ptr %3, align 8, !tbaa !7
  call void @llvm.lifetime.start.p0(i64 4, ptr %4) #29
  %6 = load i64, ptr %3, align 8, !tbaa !7
  %7 = call i32 @RB_ENCODING_GET_INLINED(i64 noundef %6)
  store i32 %7, ptr %4, align 4, !tbaa !22
  %8 = load i32, ptr %4, align 4, !tbaa !22
  %9 = icmp eq i32 %8, 127
  br i1 %9, label %10, label %13

10:                                               ; preds = %1
  %11 = load i64, ptr %3, align 8, !tbaa !7
  %12 = call i32 @rb_enc_get_index(i64 noundef %11)
  store i32 %12, ptr %2, align 4
  store i32 1, ptr %5, align 4
  br label %15

13:                                               ; preds = %1
  %14 = load i32, ptr %4, align 4, !tbaa !22
  store i32 %14, ptr %2, align 4
  store i32 1, ptr %5, align 4
  br label %15

15:                                               ; preds = %13, %10
  call void @llvm.lifetime.end.p0(i64 4, ptr %4) #29
  %16 = load i32, ptr %2, align 4
  ret i32 %16
}

; Function Attrs: inlinehint nounwind sspstrong willreturn memory(read, argmem: readwrite) uwtable
define internal void @rbimpl_rstring_getmem(ptr dead_on_unwind noalias writable sret(%struct.RString) align 8 %0, i64 noundef %1) #11 {
  %3 = alloca i64, align 8
  store i64 %1, ptr %3, align 8, !tbaa !7
  %4 = load i64, ptr %3, align 8, !tbaa !7
  %5 = call zeroext i1 @RB_FL_ANY_RAW(i64 noundef %4, i64 noundef 8192) #28
  br i1 %5, label %6, label %9

6:                                                ; preds = %2
  %7 = load i64, ptr %3, align 8, !tbaa !7
  %8 = inttoptr i64 %7 to ptr
  call void @llvm.memcpy.p0.p0.i64(ptr align 8 %0, ptr align 8 %8, i64 40, i1 false), !tbaa.struct !58
  br label %20

9:                                                ; preds = %2
  %10 = load i64, ptr %3, align 8, !tbaa !7
  %11 = call i64 @RSTRING_LEN(i64 noundef %10) #28
  %12 = getelementptr inbounds nuw %struct.RString, ptr %0, i32 0, i32 1
  store i64 %11, ptr %12, align 8, !tbaa !11
  %13 = load i64, ptr %3, align 8, !tbaa !7
  %14 = inttoptr i64 %13 to ptr
  %15 = getelementptr inbounds nuw %struct.RString, ptr %14, i32 0, i32 2
  %16 = getelementptr inbounds nuw %struct.anon.1, ptr %15, i32 0, i32 0
  %17 = getelementptr inbounds [1 x i8], ptr %16, i64 0, i64 0
  %18 = getelementptr inbounds nuw %struct.RString, ptr %0, i32 0, i32 2
  %19 = getelementptr inbounds nuw %struct.anon, ptr %18, i32 0, i32 0
  store ptr %17, ptr %19, align 8, !tbaa !14
  br label %20

20:                                               ; preds = %9, %6
  ret void
}

; Function Attrs: nounwind sspstrong uwtable
define dso_local i32 @rb_str_cmp(i64 noundef %0, i64 noundef %1) #0 {
  %3 = alloca i32, align 4
  %4 = alloca i64, align 8
  %5 = alloca i64, align 8
  %6 = alloca i64, align 8
  %7 = alloca i64, align 8
  %8 = alloca ptr, align 8
  %9 = alloca ptr, align 8
  %10 = alloca i32, align 4
  %11 = alloca i32, align 4
  %12 = alloca %struct.RString, align 8
  %13 = alloca i64, align 8
  %14 = alloca %struct.RString, align 8
  %15 = alloca i64, align 8
  store i64 %0, ptr %4, align 8, !tbaa !7
  store i64 %1, ptr %5, align 8, !tbaa !7
  call void @llvm.lifetime.start.p0(i64 8, ptr %6) #29
  call void @llvm.lifetime.start.p0(i64 8, ptr %7) #29
  call void @llvm.lifetime.start.p0(i64 8, ptr %8) #29
  call void @llvm.lifetime.start.p0(i64 8, ptr %9) #29
  call void @llvm.lifetime.start.p0(i64 4, ptr %10) #29
  %16 = load i64, ptr %4, align 8, !tbaa !7
  %17 = load i64, ptr %5, align 8, !tbaa !7
  %18 = icmp eq i64 %16, %17
  br i1 %18, label %19, label %20

19:                                               ; preds = %2
  store i32 0, ptr %3, align 4
  store i32 1, ptr %11, align 4
  br label %79

20:                                               ; preds = %2
  call void @llvm.lifetime.start.p0(i64 40, ptr %12) #29
  %21 = load i64, ptr %4, align 8, !tbaa !7
  call void @rbimpl_rstring_getmem(ptr dead_on_unwind writable sret(%struct.RString) align 8 %12, i64 noundef %21) #31
  %22 = getelementptr inbounds nuw %struct.RString, ptr %12, i32 0, i32 2
  %23 = getelementptr inbounds nuw %struct.anon, ptr %22, i32 0, i32 0
  %24 = load ptr, ptr %23, align 8, !tbaa !14
  store ptr %24, ptr %8, align 8, !tbaa !24
  %25 = getelementptr inbounds nuw %struct.RString, ptr %12, i32 0, i32 1
  %26 = load i64, ptr %25, align 8, !tbaa !11
  store i64 %26, ptr %6, align 8, !tbaa !7
  store i64 %26, ptr %13, align 8, !tbaa !7
  call void @llvm.lifetime.end.p0(i64 40, ptr %12) #29
  call void @llvm.lifetime.start.p0(i64 40, ptr %14) #29
  %27 = load i64, ptr %5, align 8, !tbaa !7
  call void @rbimpl_rstring_getmem(ptr dead_on_unwind writable sret(%struct.RString) align 8 %14, i64 noundef %27) #31
  %28 = getelementptr inbounds nuw %struct.RString, ptr %14, i32 0, i32 2
  %29 = getelementptr inbounds nuw %struct.anon, ptr %28, i32 0, i32 0
  %30 = load ptr, ptr %29, align 8, !tbaa !14
  store ptr %30, ptr %9, align 8, !tbaa !24
  %31 = getelementptr inbounds nuw %struct.RString, ptr %14, i32 0, i32 1
  %32 = load i64, ptr %31, align 8, !tbaa !11
  store i64 %32, ptr %7, align 8, !tbaa !7
  store i64 %32, ptr %15, align 8, !tbaa !7
  call void @llvm.lifetime.end.p0(i64 40, ptr %14) #29
  %33 = load ptr, ptr %8, align 8, !tbaa !24
  %34 = load ptr, ptr %9, align 8, !tbaa !24
  %35 = icmp eq ptr %33, %34
  br i1 %35, label %50, label %36

36:                                               ; preds = %20
  %37 = load ptr, ptr %8, align 8, !tbaa !24
  %38 = load ptr, ptr %9, align 8, !tbaa !24
  %39 = load i64, ptr %6, align 8, !tbaa !7
  %40 = load i64, ptr %7, align 8, !tbaa !7
  %41 = icmp sgt i64 %39, %40
  br i1 %41, label %42, label %44

42:                                               ; preds = %36
  %43 = load i64, ptr %7, align 8, !tbaa !7
  br label %46

44:                                               ; preds = %36
  %45 = load i64, ptr %6, align 8, !tbaa !7
  br label %46

46:                                               ; preds = %44, %42
  %47 = phi i64 [ %43, %42 ], [ %45, %44 ]
  %48 = call i32 @memcmp(ptr noundef %37, ptr noundef %38, i64 noundef %47) #28
  store i32 %48, ptr %10, align 4, !tbaa !22
  %49 = icmp eq i32 %48, 0
  br i1 %49, label %50, label %74

50:                                               ; preds = %46, %20
  %51 = load i64, ptr %6, align 8, !tbaa !7
  %52 = load i64, ptr %7, align 8, !tbaa !7
  %53 = icmp eq i64 %51, %52
  br i1 %53, label %54, label %68

54:                                               ; preds = %50
  %55 = load i64, ptr %4, align 8, !tbaa !7
  %56 = load i64, ptr %5, align 8, !tbaa !7
  %57 = call i32 @rb_str_comparable(i64 noundef %55, i64 noundef %56)
  %58 = icmp ne i32 %57, 0
  br i1 %58, label %67, label %59

59:                                               ; preds = %54
  %60 = load i64, ptr %4, align 8, !tbaa !7
  %61 = call i32 @RB_ENCODING_GET(i64 noundef %60)
  %62 = load i64, ptr %5, align 8, !tbaa !7
  %63 = call i32 @RB_ENCODING_GET(i64 noundef %62)
  %64 = icmp sgt i32 %61, %63
  br i1 %64, label %65, label %66

65:                                               ; preds = %59
  store i32 1, ptr %3, align 4
  store i32 1, ptr %11, align 4
  br label %79

66:                                               ; preds = %59
  store i32 -1, ptr %3, align 4
  store i32 1, ptr %11, align 4
  br label %79

67:                                               ; preds = %54
  store i32 0, ptr %3, align 4
  store i32 1, ptr %11, align 4
  br label %79

68:                                               ; preds = %50
  %69 = load i64, ptr %6, align 8, !tbaa !7
  %70 = load i64, ptr %7, align 8, !tbaa !7
  %71 = icmp sgt i64 %69, %70
  br i1 %71, label %72, label %73

72:                                               ; preds = %68
  store i32 1, ptr %3, align 4
  store i32 1, ptr %11, align 4
  br label %79

73:                                               ; preds = %68
  store i32 -1, ptr %3, align 4
  store i32 1, ptr %11, align 4
  br label %79

74:                                               ; preds = %46
  %75 = load i32, ptr %10, align 4, !tbaa !22
  %76 = icmp sgt i32 %75, 0
  br i1 %76, label %77, label %78

77:                                               ; preds = %74
  store i32 1, ptr %3, align 4
  store i32 1, ptr %11, align 4
  br label %79

78:                                               ; preds = %74
  store i32 -1, ptr %3, align 4
  store i32 1, ptr %11, align 4
  br label %79

79:                                               ; preds = %78, %77, %73, %72, %67, %66, %65, %19
  call void @llvm.lifetime.end.p0(i64 4, ptr %10) #29
  call void @llvm.lifetime.end.p0(i64 8, ptr %9) #29
  call void @llvm.lifetime.end.p0(i64 8, ptr %8) #29
  call void @llvm.lifetime.end.p0(i64 8, ptr %7) #29
  call void @llvm.lifetime.end.p0(i64 8, ptr %6) #29
  %80 = load i32, ptr %3, align 4
  ret i32 %80
}