; Function Attrs: nounwind sspstrong uwtable
define dso_local range(i32 -1, 2) i32 @rb_str_cmp(i64 noundef %0, i64 noundef %1) local_unnamed_addr #1 {
  %3 = icmp eq i64 %0, %1
  br i1 %3, label %43, label %4

4:                                                ; preds = %2
  %5 = inttoptr i64 %0 to ptr
  %6 = load i64, ptr %5, align 8, !tbaa !7, !noalias !291
  %7 = and i64 %6, 8192
  %.not.i = icmp eq i64 %7, 0
  %8 = getelementptr inbounds nuw i8, ptr %5, i64 24
  br i1 %.not.i, label %rbimpl_rstring_getmem.exit, label %9

9:                                                ; preds = %4
  %.sroa.536.0.copyload = load ptr, ptr %8, align 8
  br label %rbimpl_rstring_getmem.exit

rbimpl_rstring_getmem.exit:                       ; preds = %4, %9
  %.sroa.536.0 = phi ptr [ %.sroa.536.0.copyload, %9 ], [ %8, %4 ]
  %.sroa.335.0.in = getelementptr inbounds nuw i8, ptr %5, i64 16
  %.sroa.335.0 = load i64, ptr %.sroa.335.0.in, align 8, !tbaa !26
  %10 = inttoptr i64 %1 to ptr
  %11 = load i64, ptr %10, align 8, !tbaa !7, !noalias !294
  %12 = and i64 %11, 8192
  %.not.i30 = icmp eq i64 %12, 0
  %13 = getelementptr inbounds nuw i8, ptr %10, i64 24
  br i1 %.not.i30, label %rbimpl_rstring_getmem.exit31, label %14

14:                                               ; preds = %rbimpl_rstring_getmem.exit
  %.sroa.5.0.copyload = load ptr, ptr %13, align 8
  br label %rbimpl_rstring_getmem.exit31

rbimpl_rstring_getmem.exit31:                     ; preds = %rbimpl_rstring_getmem.exit, %14
  %.sroa.5.0 = phi ptr [ %.sroa.5.0.copyload, %14 ], [ %13, %rbimpl_rstring_getmem.exit ]
  %.sroa.3.0.in = getelementptr inbounds nuw i8, ptr %10, i64 16
  %.sroa.3.0 = load i64, ptr %.sroa.3.0.in, align 8, !tbaa !26
  %15 = icmp eq ptr %.sroa.536.0, %.sroa.5.0
  br i1 %15, label %20, label %16

16:                                               ; preds = %rbimpl_rstring_getmem.exit31
  %17 = tail call i64 @llvm.smin.i64(i64 %.sroa.335.0, i64 %.sroa.3.0)
  %18 = tail call i32 @memcmp(ptr noundef %.sroa.536.0, ptr noundef %.sroa.5.0, i64 noundef %17) #31
  %19 = icmp eq i32 %18, 0
  br i1 %19, label %20, label %42

20:                                               ; preds = %16, %rbimpl_rstring_getmem.exit31
  %21 = icmp eq i64 %.sroa.335.0, %.sroa.3.0
  br i1 %21, label %22, label %40

22:                                               ; preds = %20
  %23 = tail call i32 @rb_str_comparable(i64 noundef %0, i64 noundef %1)
  %.not = icmp eq i32 %23, 0
  br i1 %.not, label %24, label %43

24:                                               ; preds = %22
  %25 = load i64, ptr %5, align 8, !tbaa !7
  %26 = trunc i64 %25 to i32
  %27 = lshr i32 %26, 22
  %28 = and i32 %27, 127
  %29 = icmp eq i32 %28, 127
  br i1 %29, label %30, label %RB_ENCODING_GET.exit

30:                                               ; preds = %24
  %31 = tail call i32 @rb_enc_get_index(i64 noundef %0) #29
  br label %RB_ENCODING_GET.exit

RB_ENCODING_GET.exit:                             ; preds = %24, %30
  %.0.i = phi i32 [ %31, %30 ], [ %28, %24 ]
  %32 = load i64, ptr %10, align 8, !tbaa !7
  %33 = trunc i64 %32 to i32
  %34 = lshr i32 %33, 22
  %35 = and i32 %34, 127
  %36 = icmp eq i32 %35, 127
  br i1 %36, label %37, label %RB_ENCODING_GET.exit33

37:                                               ; preds = %RB_ENCODING_GET.exit
  %38 = tail call i32 @rb_enc_get_index(i64 noundef %1) #29
  br label %RB_ENCODING_GET.exit33

RB_ENCODING_GET.exit33:                           ; preds = %RB_ENCODING_GET.exit, %37
  %.0.i32 = phi i32 [ %38, %37 ], [ %35, %RB_ENCODING_GET.exit ]
  %39 = icmp sgt i32 %.0.i, %.0.i32
  %. = select i1 %39, i32 1, i32 -1
  br label %43

40:                                               ; preds = %20
  %41 = icmp sgt i64 %.sroa.335.0, %.sroa.3.0
  %.28 = select i1 %41, i32 1, i32 -1
  br label %43

42:                                               ; preds = %16
  %.inv = icmp slt i32 %18, 1
  %.29 = select i1 %.inv, i32 -1, i32 1
  br label %43

43:                                               ; preds = %42, %40, %22, %RB_ENCODING_GET.exit33, %2
  %.0 = phi i32 [ 0, %2 ], [ %., %RB_ENCODING_GET.exit33 ], [ 0, %22 ], [ %.28, %40 ], [ %.29, %42 ]
  ret i32 %.0
}